target datalayout = "e-m:e-p270:32:32-p271:32:32-p272:64:64-i64:64-i128:128-f80:128-n8:16:32:64-S128"
target triple = "x86_64-pc-linux-gnu"

%"class.pxrInternal_v0_24__pxrReserved__::GfMatrix4f" = type { %"class.pxrInternal_v0_24__pxrReserved__::GfMatrixData" }
%"class.pxrInternal_v0_24__pxrReserved__::GfMatrixData" = type { [16 x float] }

; Function Attrs: mustprogress nounwind uwtable
define linkonce_odr noundef ptr @_ZNK32pxrInternal_v0_24__pxrReserved__12GfMatrixDataIfLi4ELi4EEixEi(ptr noundef nonnull align 4 dereferenceable(64) %0, i32 noundef %1) #2 comdat align 2 {
  %3 = alloca ptr, align 8
  %4 = alloca i32, align 4
  store ptr %0, ptr %3, align 8
  store i32 %1, ptr %4, align 4
  %5 = load ptr, ptr %3, align 8
  %6 = getelementptr inbounds nuw %"class.pxrInternal_v0_24__pxrReserved__::GfMatrixData", ptr %5, i32 0, i32 0
  %7 = getelementptr inbounds [16 x float], ptr %6, i64 0, i64 0
  %8 = load i32, ptr %4, align 4
  %9 = mul nsw i32 %8, 4
  %10 = sext i32 %9 to i64
  %11 = getelementptr inbounds float, ptr %7, i64 %10
  ret ptr %11
}

; Function Attrs: mustprogress uwtable
define noundef double @_ZNK32pxrInternal_v0_24__pxrReserved__10GfMatrix4f16_GetDeterminant3Emmmmmm(ptr noundef nonnull align 4 dereferenceable(64) %0, i64 noundef %1, i64 noundef %2, i64 noundef %3, i64 noundef %4, i64 noundef %5, i64 noundef %6) #0 align 2 {
  %8 = alloca ptr, align 8
  %9 = alloca i64, align 8
  %10 = alloca i64, align 8
  %11 = alloca i64, align 8
  %12 = alloca i64, align 8
  %13 = alloca i64, align 8
  %14 = alloca i64, align 8
  store ptr %0, ptr %8, align 8
  store i64 %1, ptr %9, align 8
  store i64 %2, ptr %10, align 8
  store i64 %3, ptr %11, align 8
  store i64 %4, ptr %12, align 8
  store i64 %5, ptr %13, align 8
  store i64 %6, ptr %14, align 8
  %15 = load ptr, ptr %8, align 8
  %16 = getelementptr inbounds nuw %"class.pxrInternal_v0_24__pxrReserved__::GfMatrix4f", ptr %15, i32 0, i32 0
  %17 = load i64, ptr %9, align 8
  %18 = trunc i64 %17 to i32
  %19 = call noundef ptr @_ZNK32pxrInternal_v0_24__pxrReserved__12GfMatrixDataIfLi4ELi4EEixEi(ptr noundef nonnull align 4 dereferenceable(64) %16, i32 noundef %18)
  %20 = load i64, ptr %12, align 8
  %21 = getelementptr inbounds float, ptr %19, i64 %20
  %22 = load float, ptr %21, align 4
  %23 = getelementptr inbounds nuw %"class.pxrInternal_v0_24__pxrReserved__::GfMatrix4f", ptr %15, i32 0, i32 0
  %24 = load i64, ptr %10, align 8
  %25 = trunc i64 %24 to i32
  %26 = call noundef ptr @_ZNK32pxrInternal_v0_24__pxrReserved__12GfMatrixDataIfLi4ELi4EEixEi(ptr noundef nonnull align 4 dereferenceable(64) %23, i32 noundef %25)
  %27 = load i64, ptr %13, align 8
  %28 = getelementptr inbounds float, ptr %26, i64 %27
  %29 = load float, ptr %28, align 4
  %30 = fmul float %22, %29
  %31 = getelementptr inbounds nuw %"class.pxrInternal_v0_24__pxrReserved__::GfMatrix4f", ptr %15, i32 0, i32 0
  %32 = load i64, ptr %11, align 8
  %33 = trunc i64 %32 to i32
  %34 = call noundef ptr @_ZNK32pxrInternal_v0_24__pxrReserved__12GfMatrixDataIfLi4ELi4EEixEi(ptr noundef nonnull align 4 dereferenceable(64) %31, i32 noundef %33)
  %35 = load i64, ptr %14, align 8
  %36 = getelementptr inbounds float, ptr %34, i64 %35
  %37 = load float, ptr %36, align 4
  %38 = getelementptr inbounds nuw %"class.pxrInternal_v0_24__pxrReserved__::GfMatrix4f", ptr %15, i32 0, i32 0
  %39 = load i64, ptr %9, align 8
  %40 = trunc i64 %39 to i32
  %41 = call noundef ptr @_ZNK32pxrInternal_v0_24__pxrReserved__12GfMatrixDataIfLi4ELi4EEixEi(ptr noundef nonnull align 4 dereferenceable(64) %38, i32 noundef %40)
  %42 = load i64, ptr %13, align 8
  %43 = getelementptr inbounds float, ptr %41, i64 %42
  %44 = load float, ptr %43, align 4
  %45 = getelementptr inbounds nuw %"class.pxrInternal_v0_24__pxrReserved__::GfMatrix4f", ptr %15, i32 0, i32 0
  %46 = load i64, ptr %10, align 8
  %47 = trunc i64 %46 to i32
  %48 = call noundef ptr @_ZNK32pxrInternal_v0_24__pxrReserved__12GfMatrixDataIfLi4ELi4EEixEi(ptr noundef nonnull align 4 dereferenceable(64) %45, i32 noundef %47)
  %49 = load i64, ptr %14, align 8
  %50 = getelementptr inbounds float, ptr %48, i64 %49
  %51 = load float, ptr %50, align 4
  %52 = fmul float %44, %51
  %53 = getelementptr inbounds nuw %"class.pxrInternal_v0_24__pxrReserved__::GfMatrix4f", ptr %15, i32 0, i32 0
  %54 = load i64, ptr %11, align 8
  %55 = trunc i64 %54 to i32
  %56 = call noundef ptr @_ZNK32pxrInternal_v0_24__pxrReserved__12GfMatrixDataIfLi4ELi4EEixEi(ptr noundef nonnull align 4 dereferenceable(64) %53, i32 noundef %55)
  %57 = load i64, ptr %12, align 8
  %58 = getelementptr inbounds float, ptr %56, i64 %57
  %59 = load float, ptr %58, align 4
  %60 = fmul float %52, %59
  %61 = call float @llvm.fmuladd.f32(float %30, float %37, float %60)
  %62 = getelementptr inbounds nuw %"class.pxrInternal_v0_24__pxrReserved__::GfMatrix4f", ptr %15, i32 0, i32 0
  %63 = load i64, ptr %9, align 8
  %64 = trunc i64 %63 to i32
  %65 = call noundef ptr @_ZNK32pxrInternal_v0_24__pxrReserved__12GfMatrixDataIfLi4ELi4EEixEi(ptr noundef nonnull align 4 dereferenceable(64) %62, i32 noundef %64)
  %66 = load i64, ptr %14, align 8
  %67 = getelementptr inbounds float, ptr %65, i64 %66
  %68 = load float, ptr %67, align 4
  %69 = getelementptr inbounds nuw %"class.pxrInternal_v0_24__pxrReserved__::GfMatrix4f", ptr %15, i32 0, i32 0
  %70 = load i64, ptr %10, align 8
  %71 = trunc i64 %70 to i32
  %72 = call noundef ptr @_ZNK32pxrInternal_v0_24__pxrReserved__12GfMatrixDataIfLi4ELi4EEixEi(ptr noundef nonnull align 4 dereferenceable(64) %69, i32 noundef %71)
  %73 = load i64, ptr %12, align 8
  %74 = getelementptr inbounds float, ptr %72, i64 %73
  %75 = load float, ptr %74, align 4
  %76 = fmul float %68, %75
  %77 = getelementptr inbounds nuw %"class.pxrInternal_v0_24__pxrReserved__::GfMatrix4f", ptr %15, i32 0, i32 0
  %78 = load i64, ptr %11, align 8
  %79 = trunc i64 %78 to i32
  %80 = call noundef ptr @_ZNK32pxrInternal_v0_24__pxrReserved__12GfMatrixDataIfLi4ELi4EEixEi(ptr noundef nonnull align 4 dereferenceable(64) %77, i32 noundef %79)
  %81 = load i64, ptr %13, align 8
  %82 = getelementptr inbounds float, ptr %80, i64 %81
  %83 = load float, ptr %82, align 4
  %84 = call float @llvm.fmuladd.f32(float %76, float %83, float %61)
  %85 = getelementptr inbounds nuw %"class.pxrInternal_v0_24__pxrReserved__::GfMatrix4f", ptr %15, i32 0, i32 0
  %86 = load i64, ptr %9, align 8
  %87 = trunc i64 %86 to i32
  %88 = call noundef ptr @_ZNK32pxrInternal_v0_24__pxrReserved__12GfMatrixDataIfLi4ELi4EEixEi(ptr noundef nonnull align 4 dereferenceable(64) %85, i32 noundef %87)
  %89 = load i64, ptr %12, align 8
  %90 = getelementptr inbounds float, ptr %88, i64 %89
  %91 = load float, ptr %90, align 4
  %92 = getelementptr inbounds nuw %"class.pxrInternal_v0_24__pxrReserved__::GfMatrix4f", ptr %15, i32 0, i32 0
  %93 = load i64, ptr %10, align 8
  %94 = trunc i64 %93 to i32
  %95 = call noundef ptr @_ZNK32pxrInternal_v0_24__pxrReserved__12GfMatrixDataIfLi4ELi4EEixEi(ptr noundef nonnull align 4 dereferenceable(64) %92, i32 noundef %94)
  %96 = load i64, ptr %14, align 8
  %97 = getelementptr inbounds float, ptr %95, i64 %96
  %98 = load float, ptr %97, align 4
  %99 = fmul float %91, %98
  %100 = getelementptr inbounds nuw %"class.pxrInternal_v0_24__pxrReserved__::GfMatrix4f", ptr %15, i32 0, i32 0
  %101 = load i64, ptr %11, align 8
  %102 = trunc i64 %101 to i32
  %103 = call noundef ptr @_ZNK32pxrInternal_v0_24__pxrReserved__12GfMatrixDataIfLi4ELi4EEixEi(ptr noundef nonnull align 4 dereferenceable(64) %100, i32 noundef %102)
  %104 = load i64, ptr %13, align 8
  %105 = getelementptr inbounds float, ptr %103, i64 %104
  %106 = load float, ptr %105, align 4
  %107 = fneg float %99
  %108 = call float @llvm.fmuladd.f32(float %107, float %106, float %84)
  %109 = getelementptr inbounds nuw %"class.pxrInternal_v0_24__pxrReserved__::GfMatrix4f", ptr %15, i32 0, i32 0
  %110 = load i64, ptr %9, align 8
  %111 = trunc i64 %110 to i32
  %112 = call noundef ptr @_ZNK32pxrInternal_v0_24__pxrReserved__12GfMatrixDataIfLi4ELi4EEixEi(ptr noundef nonnull align 4 dereferenceable(64) %109, i32 noundef %111)
  %113 = load i64, ptr %13, align 8
  %114 = getelementptr inbounds float, ptr %112, i64 %113
  %115 = load float, ptr %114, align 4
  %116 = getelementptr inbounds nuw %"class.pxrInternal_v0_24__pxrReserved__::GfMatrix4f", ptr %15, i32 0, i32 0
  %117 = load i64, ptr %10, align 8
  %118 = trunc i64 %117 to i32
  %119 = call noundef ptr @_ZNK32pxrInternal_v0_24__pxrReserved__12GfMatrixDataIfLi4ELi4EEixEi(ptr noundef nonnull align 4 dereferenceable(64) %116, i32 noundef %118)
  %120 = load i64, ptr %12, align 8
  %121 = getelementptr inbounds float, ptr %119, i64 %120
  %122 = load float, ptr %121, align 4
  %123 = fmul float %115, %122
  %124 = getelementptr inbounds nuw %"class.pxrInternal_v0_24__pxrReserved__::GfMatrix4f", ptr %15, i32 0, i32 0
  %125 = load i64, ptr %11, align 8
  %126 = trunc i64 %125 to i32
  %127 = call noundef ptr @_ZNK32pxrInternal_v0_24__pxrReserved__12GfMatrixDataIfLi4ELi4EEixEi(ptr noundef nonnull align 4 dereferenceable(64) %124, i32 noundef %126)
  %128 = load i64, ptr %14, align 8
  %129 = getelementptr inbounds float, ptr %127, i64 %128
  %130 = load float, ptr %129, align 4
  %131 = fneg float %123
  %132 = call float @llvm.fmuladd.f32(float %131, float %130, float %108)
  %133 = getelementptr inbounds nuw %"class.pxrInternal_v0_24__pxrReserved__::GfMatrix4f", ptr %15, i32 0, i32 0
  %134 = load i64, ptr %9, align 8
  %135 = trunc i64 %134 to i32
  %136 = call noundef ptr @_ZNK32pxrInternal_v0_24__pxrReserved__12GfMatrixDataIfLi4ELi4EEixEi(ptr noundef nonnull align 4 dereferenceable(64) %133, i32 noundef %135)
  %137 = load i64, ptr %14, align 8
  %138 = getelementptr inbounds float, ptr %136, i64 %137
  %139 = load float, ptr %138, align 4
  %140 = getelementptr inbounds nuw %"class.pxrInternal_v0_24__pxrReserved__::GfMatrix4f", ptr %15, i32 0, i32 0
  %141 = load i64, ptr %10, align 8
  %142 = trunc i64 %141 to i32
  %143 = call noundef ptr @_ZNK32pxrInternal_v0_24__pxrReserved__12GfMatrixDataIfLi4ELi4EEixEi(ptr noundef nonnull align 4 dereferenceable(64) %140, i32 noundef %142)
  %144 = load i64, ptr %13, align 8
  %145 = getelementptr inbounds float, ptr %143, i64 %144
  %146 = load float, ptr %145, align 4
  %147 = fmul float %139, %146
  %148 = getelementptr inbounds nuw %"class.pxrInternal_v0_24__pxrReserved__::GfMatrix4f", ptr %15, i32 0, i32 0
  %149 = load i64, ptr %11, align 8
  %150 = trunc i64 %149 to i32
  %151 = call noundef ptr @_ZNK32pxrInternal_v0_24__pxrReserved__12GfMatrixDataIfLi4ELi4EEixEi(ptr noundef nonnull align 4 dereferenceable(64) %148, i32 noundef %150)
  %152 = load i64, ptr %12, align 8
  %153 = getelementptr inbounds float, ptr %151, i64 %152
  %154 = load float, ptr %153, align 4
  %155 = fneg float %147
  %156 = call float @llvm.fmuladd.f32(float %155, float %154, float %132)
  %157 = fpext float %156 to double
  ret double %157
}