; Function Attrs: mustprogress nofree norecurse nosync nounwind willreturn memory(argmem: read) uwtable
define noundef double @_ZNK32pxrInternal_v0_24__pxrReserved__10GfMatrix4f16_GetDeterminant3Emmmmmm(ptr noundef nonnull readonly align 4 captures(none) dereferenceable(64) %0, i64 noundef %1, i64 noundef %2, i64 noundef %3, i64 noundef %4, i64 noundef %5, i64 noundef %6) local_unnamed_addr #6 align 2 {
  %8 = trunc i64 %1 to i32
  %9 = shl nsw i32 %8, 2
  %10 = sext i32 %9 to i64
  %11 = getelementptr inbounds float, ptr %0, i64 %10
  %12 = getelementptr inbounds float, ptr %11, i64 %4
  %13 = load float, ptr %12, align 4
  %14 = trunc i64 %2 to i32
  %15 = shl nsw i32 %14, 2
  %16 = sext i32 %15 to i64
  %17 = getelementptr inbounds float, ptr %0, i64 %16
  %18 = getelementptr inbounds float, ptr %17, i64 %5
  %19 = load float, ptr %18, align 4
  %20 = fmul float %13, %19
  %21 = trunc i64 %3 to i32
  %22 = shl nsw i32 %21, 2
  %23 = sext i32 %22 to i64
  %24 = getelementptr inbounds float, ptr %0, i64 %23
  %25 = getelementptr inbounds float, ptr %24, i64 %6
  %26 = load float, ptr %25, align 4
  %27 = getelementptr inbounds float, ptr %11, i64 %5
  %28 = load float, ptr %27, align 4
  %29 = getelementptr inbounds float, ptr %17, i64 %6
  %30 = load float, ptr %29, align 4
  %31 = fmul float %28, %30
  %32 = getelementptr inbounds float, ptr %24, i64 %4
  %33 = load float, ptr %32, align 4
  %34 = fmul float %31, %33
  %35 = tail call float @llvm.fmuladd.f32(float %20, float %26, float %34)
  %36 = getelementptr inbounds float, ptr %11, i64 %6
  %37 = load float, ptr %36, align 4
  %38 = getelementptr inbounds float, ptr %17, i64 %4
  %39 = load float, ptr %38, align 4
  %40 = fmul float %37, %39
  %41 = getelementptr inbounds float, ptr %24, i64 %5
  %42 = load float, ptr %41, align 4
  %43 = tail call float @llvm.fmuladd.f32(float %40, float %42, float %35)
  %44 = fneg float %30
  %45 = fmul float %13, %44
  %46 = tail call float @llvm.fmuladd.f32(float %45, float %42, float %43)
  %47 = fneg float %39
  %48 = fmul float %28, %47
  %49 = tail call float @llvm.fmuladd.f32(float %48, float %26, float %46)
  %50 = fneg float %19
  %51 = fmul float %37, %50
  %52 = tail call float @llvm.fmuladd.f32(float %51, float %33, float %49)
  %53 = fpext float %52 to double
  ret double %53
}